; Function Attrs: mustprogress nofree norecurse nosync nounwind willreturn memory(argmem: readwrite) uwtable
define dso_local void @_ZN4llvm14DWARFDebugLine8Prologue5clearEv(ptr noundef nonnull align 8 captures(none) dereferenceable(112) initializes((0, 13), (16, 35)) %0) local_unnamed_addr #1 align 2 {
  %2 = getelementptr inbounds nuw i8, ptr %0, i64 16
  %3 = getelementptr inbounds nuw i8, ptr %0, i64 40
  tail call void @llvm.memset.p0.i64(ptr noundef nonnull align 8 dereferenceable(13) %0, i8 0, i64 13, i1 false)
  tail call void @llvm.memset.p0.i64(ptr noundef nonnull align 8 dereferenceable(19) %2, i8 0, i64 19, i1 false)
  %4 = load ptr, ptr %3, align 8
  %5 = getelementptr inbounds nuw i8, ptr %0, i64 48
  %6 = load ptr, ptr %5, align 8
  %.not.i.i = icmp eq ptr %6, %4
  br i1 %.not.i.i, label %_ZNSt6vectorIhSaIhEE5clearEv.exit, label %7

7:                                                ; preds = %1
  store ptr %4, ptr %5, align 8
  br label %_ZNSt6vectorIhSaIhEE5clearEv.exit

_ZNSt6vectorIhSaIhEE5clearEv.exit:                ; preds = %1, %7
  %8 = getelementptr inbounds nuw i8, ptr %0, i64 64
  %9 = load ptr, ptr %8, align 8
  %10 = getelementptr inbounds nuw i8, ptr %0, i64 72
  %11 = load ptr, ptr %10, align 8
  %.not.i.i1 = icmp eq ptr %11, %9
  br i1 %.not.i.i1, label %_ZNSt6vectorIN4llvm14DWARFFormValueESaIS1_EE5clearEv.exit, label %12

12:                                               ; preds = %_ZNSt6vectorIhSaIhEE5clearEv.exit
  store ptr %9, ptr %10, align 8
  br label %_ZNSt6vectorIN4llvm14DWARFFormValueESaIS1_EE5clearEv.exit

_ZNSt6vectorIN4llvm14DWARFFormValueESaIS1_EE5clearEv.exit: ; preds = %_ZNSt6vectorIhSaIhEE5clearEv.exit, %12
  %13 = getelementptr inbounds nuw i8, ptr %0, i64 88
  %14 = load ptr, ptr %13, align 8
  %15 = getelementptr inbounds nuw i8, ptr %0, i64 96
  %16 = load ptr, ptr %15, align 8
  %.not.i.i2 = icmp eq ptr %16, %14
  br i1 %.not.i.i2, label %_ZNSt6vectorIN4llvm14DWARFDebugLine13FileNameEntryESaIS2_EE5clearEv.exit, label %17

17:                                               ; preds = %_ZNSt6vectorIN4llvm14DWARFFormValueESaIS1_EE5clearEv.exit
  store ptr %14, ptr %15, align 8
  br label %_ZNSt6vectorIN4llvm14DWARFDebugLine13FileNameEntryESaIS2_EE5clearEv.exit

_ZNSt6vectorIN4llvm14DWARFDebugLine13FileNameEntryESaIS2_EE5clearEv.exit: ; preds = %_ZNSt6vectorIN4llvm14DWARFFormValueESaIS1_EE5clearEv.exit, %17
  ret void
}